target datalayout = "e-m:e-p270:32:32-p271:32:32-p272:64:64-i64:64-i128:128-f80:128-n8:16:32:64-S128"
target triple = "x86_64-pc-linux-gnu"

%struct.connectdata = type { %struct.Curl_llist_node, ptr, ptr, i64, ptr, i64, ptr, ptr, %struct.hostname, ptr, ptr, %struct.hostname, %struct.proxy_info, %struct.proxy_info, %struct.ip_quadruple, %struct.ip_quadruple, ptr, ptr, ptr, ptr, ptr, %struct.curltime, %struct.curltime, %struct.curltime, [2 x i32], [2 x ptr], [2 x ptr], [2 x ptr], %struct.anon, %struct.easy_pollset, %struct.ssl_primary_config, %struct.ssl_primary_config, %struct.ConnectBits, ptr, ptr, %struct.curltime, i32, i32, %struct.Curl_llist, i32, i32, %struct.ntlmdata, %struct.ntlmdata, %union.anon.1, ptr, ptr, i16, i32, i32, i32, i32, i16, i16, i8, i8, i8, i8, i8, i8, i8 }
%struct.Curl_llist_node = type { ptr, ptr, ptr, ptr }
%struct.hostname = type { ptr, ptr, ptr, ptr }
%struct.proxy_info = type { %struct.hostname, i32, i8, ptr, ptr }
%struct.ip_quadruple = type { [46 x i8], [46 x i8], i32, i32 }
%struct.anon = type { [2 x %struct.curltime], i32 }
%struct.easy_pollset = type { [5 x i32], i32, [5 x i8] }
%struct.ssl_primary_config = type { ptr, ptr, ptr, ptr, ptr, ptr, ptr, ptr, ptr, ptr, ptr, ptr, ptr, ptr, i8, i32, i8, i8 }
%struct.ConnectBits = type { i64 }
%struct.curltime = type { i64, i32 }
%struct.Curl_llist = type { ptr, ptr, ptr, i64 }
%struct.ntlmdata = type { i32, [8 x i8], i32, ptr }
%union.anon.1 = type { %struct.ftp_conn }
%struct.ftp_conn = type { %struct.pingpong, ptr, ptr, ptr, ptr, ptr, ptr, ptr, i8, i64, ptr, i64, i32, i32, i32, i32, i32, i16, i8, i8, i8, i8, i8 }
%struct.pingpong = type { i64, i8, ptr, i64, i64, %struct.curltime, i64, %struct.dynbuf, %struct.dynbuf, i64, i64, ptr, ptr }
%struct.dynbuf = type { ptr, i64, i64, i64 }
%struct.Curl_easy = type { i32, i64, i64, ptr, %struct.Curl_llist_node, %struct.Curl_llist_node, i32, i32, %struct.Curl_message, %struct.easy_pollset, %struct.Names, ptr, ptr, ptr, ptr, %struct.SingleRequest, %struct.UserDefined, ptr, ptr, ptr, %struct.Progress, %struct.UrlState, ptr, %struct.PureInfo, %struct.curl_tlssessioninfo }
%struct.Curl_message = type { %struct.Curl_llist_node, %struct.CURLMsg }
%struct.CURLMsg = type { i32, ptr, %union.anon }
%union.anon = type { ptr }
%struct.Names = type { ptr, i32 }
%struct.SingleRequest = type <{ i64, i64, i64, i64, %struct.curltime, i32, i32, i32, i32, i64, i32, i32, i8, i8, [2 x i8], i32, ptr, ptr, %struct.bufq, i64, i64, ptr, ptr, %union.anon.0, ptr, i8, i32, [3 x i8] }>
%struct.bufq = type { ptr, ptr, ptr, ptr, i64, i64, i64, i32 }
%union.anon.0 = type { ptr }
%struct.UserDefined = type <{ ptr, ptr, ptr, ptr, ptr, ptr, i64, i64, i64, ptr, ptr, i64, ptr, ptr, ptr, ptr, ptr, ptr, ptr, ptr, ptr, ptr, ptr, ptr, ptr, ptr, ptr, ptr, ptr, ptr, ptr, ptr, ptr, ptr, ptr, i64, i64, i64, i64, i64, i64, i64, i64, i64, ptr, ptr, %struct.curl_mimepart, ptr, ptr, ptr, i64, %struct.ssl_config_data, %struct.ssl_config_data, ptr, i16, i8, i8, %struct.ssl_general_config, i32, i32, i32, [4 x i8], ptr, ptr, i64, i32, i8, i8, i8, i8, ptr, ptr, ptr, i32, [4 x i8], [74 x ptr], [8 x ptr], i32, i32, i32, [4 x i8], ptr, i32, [4 x i8], ptr, ptr, ptr, ptr, ptr, i32, i32, i32, i32, i32, i32, i32, i32, i64, ptr, ptr, i64, ptr, i64, ptr, ptr, ptr, ptr, i32, i16, i16, i16, i8, i8, i8, i8, i8, i8, i8, i8, i64, [6 x i8] }>
%struct.curl_mimepart = type { ptr, ptr, i32, i32, ptr, ptr, ptr, ptr, ptr, ptr, ptr, ptr, ptr, ptr, ptr, i64, %struct.mime_state, ptr, %struct.mime_encoder_state, i64 }
%struct.mime_state = type { i32, ptr, i64 }
%struct.mime_encoder_state = type { i64, i64, i64, [256 x i8] }
%struct.ssl_config_data = type { %struct.ssl_primary_config, i64, ptr, ptr, ptr, ptr, ptr, ptr, ptr, i16 }
%struct.ssl_general_config = type { i32 }
%struct.Progress = type { i64, %struct.pgrs_dir, %struct.pgrs_dir, i64, i64, i32, i32, i64, i64, i64, i64, i64, i64, i64, i64, i64, %struct.curltime, %struct.curltime, %struct.curltime, %struct.curltime, %struct.curltime, [6 x i64], [6 x %struct.curltime], i32, i8 }
%struct.pgrs_dir = type { i64, i64, i64, %struct.pgrs_measure }
%struct.pgrs_measure = type { %struct.curltime, i64 }
%struct.UrlState = type { %struct.curltime, i64, i64, %struct.dynbuf, ptr, i64, ptr, i32, i32, i32, ptr, i32, i64, i32, ptr, %struct.digestdata, %struct.digestdata, %struct.auth, %struct.auth, %struct.Curl_async, ptr, i8, %struct.curltime, %struct.Curl_tree, %struct.Curl_llist, [15 x %struct.time_node], ptr, ptr, i64, i64, i64, i64, [32 x i8], i64, ptr, ptr, ptr, %struct.urlpieces, ptr, ptr, ptr, ptr, ptr, i64, %struct.dynbuf, %struct.Curl_llist, [2 x %struct.curl_header], ptr, i32, ptr, ptr, %struct.store_netrc, %struct.dynamically_allocated_data, i8, i8, i8, i8, i32 }
%struct.digestdata = type { ptr, ptr, ptr, ptr, ptr, ptr, i32, i8, i8 }
%struct.auth = type { i64, i64, i64, i8 }
%struct.Curl_async = type { ptr, ptr, ptr, ptr, i32, i32, i8 }
%struct.Curl_tree = type { ptr, ptr, ptr, ptr, %struct.curltime, ptr }
%struct.time_node = type { %struct.Curl_llist_node, %struct.curltime, i32 }
%struct.urlpieces = type { ptr, ptr, ptr, ptr, ptr, ptr, ptr, ptr }
%struct.curl_header = type { ptr, ptr, i64, i64, i32, ptr }
%struct.store_netrc = type { %struct.dynbuf, ptr, i8 }
%struct.dynamically_allocated_data = type { ptr, ptr, ptr, ptr, ptr, ptr, ptr, ptr, ptr, ptr, ptr, ptr, ptr, ptr }
%struct.PureInfo = type { i32, i32, i32, i64, i64, i64, i64, i64, i64, i64, ptr, ptr, i64, i32, %struct.ip_quadruple, i32, ptr, i32, %struct.curl_certinfo, i32, i8 }
%struct.curl_certinfo = type { i32, ptr }
%struct.curl_tlssessioninfo = type { i32, ptr }
%struct.pop3_conn = type { %struct.pingpong, i32, i64, i64, %struct.SASL, ptr, i8, i8, i8 }
%struct.SASL = type { ptr, i32, ptr, i16, i16, i16, i8 }

@.str.2 = private unnamed_addr constant [3 x i8] c"%s\00", align 1
@.str.3 = private unnamed_addr constant [5 x i8] c"CAPA\00", align 1

; Function Attrs: nounwind uwtable
define internal i32 @pop3_perform_capa(ptr noundef %0, ptr noundef %1) #0 {
  %3 = alloca ptr, align 8
  %4 = alloca ptr, align 8
  %5 = alloca i32, align 4
  %6 = alloca ptr, align 8
  store ptr %0, ptr %3, align 8, !tbaa !3
  store ptr %1, ptr %4, align 8, !tbaa !8
  call void @llvm.lifetime.start.p0(i64 4, ptr %5) #4
  store i32 0, ptr %5, align 4, !tbaa !10
  call void @llvm.lifetime.start.p0(i64 8, ptr %6) #4
  %7 = load ptr, ptr %4, align 8, !tbaa !8
  %8 = getelementptr inbounds nuw %struct.connectdata, ptr %7, i32 0, i32 43
  store ptr %8, ptr %6, align 8, !tbaa !91
  %9 = load ptr, ptr %6, align 8, !tbaa !91
  %10 = getelementptr inbounds nuw %struct.pop3_conn, ptr %9, i32 0, i32 4
  %11 = getelementptr inbounds nuw %struct.SASL, ptr %10, i32 0, i32 3
  store i16 0, ptr %11, align 8, !tbaa !139
  %12 = load ptr, ptr %6, align 8, !tbaa !91
  %13 = getelementptr inbounds nuw %struct.pop3_conn, ptr %12, i32 0, i32 4
  %14 = getelementptr inbounds nuw %struct.SASL, ptr %13, i32 0, i32 5
  store i16 0, ptr %14, align 4, !tbaa !108
  %15 = load ptr, ptr %6, align 8, !tbaa !91
  %16 = getelementptr inbounds nuw %struct.pop3_conn, ptr %15, i32 0, i32 8
  %17 = load i8, ptr %16, align 2
  %18 = and i8 %17, -3
  %19 = or i8 %18, 0
  store i8 %19, ptr %16, align 2
  %20 = load ptr, ptr %3, align 8, !tbaa !3
  %21 = load ptr, ptr %6, align 8, !tbaa !91
  %22 = getelementptr inbounds nuw %struct.pop3_conn, ptr %21, i32 0, i32 0
  %23 = call i32 (ptr, ptr, ptr, ...) @Curl_pp_sendf(ptr noundef %20, ptr noundef %22, ptr noundef @.str.2, ptr noundef @.str.3)
  store i32 %23, ptr %5, align 4, !tbaa !10
  %24 = load i32, ptr %5, align 4, !tbaa !10
  %25 = icmp ne i32 %24, 0
  br i1 %25, label %28, label %26

26:                                               ; preds = %2
  %27 = load ptr, ptr %3, align 8, !tbaa !3
  call void @pop3_state(ptr noundef %27, i32 noundef 2)
  br label %28

28:                                               ; preds = %26, %2
  %29 = load i32, ptr %5, align 4, !tbaa !10
  call void @llvm.lifetime.end.p0(i64 8, ptr %6) #4
  call void @llvm.lifetime.end.p0(i64 4, ptr %5) #4
  ret i32 %29
}

; Function Attrs: nounwind uwtable
define internal void @pop3_to_pop3s(ptr noundef %0) #0 {
  %2 = alloca ptr, align 8
  store ptr %0, ptr %2, align 8, !tbaa !8
  %3 = load ptr, ptr %2, align 8, !tbaa !8
  %4 = getelementptr inbounds nuw %struct.connectdata, ptr %3, i32 0, i32 33
  store ptr @Curl_handler_pop3s, ptr %4, align 8, !tbaa !144
  %5 = load ptr, ptr %2, align 8, !tbaa !8
  %6 = getelementptr inbounds nuw %struct.connectdata, ptr %5, i32 0, i32 32
  %7 = load i64, ptr %6, align 8
  %8 = and i64 %7, -134217729
  %9 = or i64 %8, 134217728
  store i64 %9, ptr %6, align 8
  ret void
}

; Function Attrs: nounwind uwtable
define internal void @pop3_state(ptr noundef %0, i32 noundef %1) #0 {
  %3 = alloca ptr, align 8
  %4 = alloca i32, align 4
  %5 = alloca ptr, align 8
  store ptr %0, ptr %3, align 8, !tbaa !3
  store i32 %1, ptr %4, align 4, !tbaa !10
  call void @llvm.lifetime.start.p0(i64 8, ptr %5) #4
  %6 = load ptr, ptr %3, align 8, !tbaa !3
  %7 = getelementptr inbounds nuw %struct.Curl_easy, ptr %6, i32 0, i32 3
  %8 = load ptr, ptr %7, align 8, !tbaa !19
  %9 = getelementptr inbounds nuw %struct.connectdata, ptr %8, i32 0, i32 43
  store ptr %9, ptr %5, align 8, !tbaa !91
  %10 = load i32, ptr %4, align 4, !tbaa !10
  %11 = load ptr, ptr %5, align 8, !tbaa !91
  %12 = getelementptr inbounds nuw %struct.pop3_conn, ptr %11, i32 0, i32 1
  store i32 %10, ptr %12, align 8, !tbaa !105
  call void @llvm.lifetime.end.p0(i64 8, ptr %5) #4
  ret void
}

; Function Attrs: nounwind uwtable
define internal i32 @pop3_perform_upgrade_tls(ptr noundef %0, ptr noundef %1) #0 {
  %3 = alloca ptr, align 8
  %4 = alloca ptr, align 8
  %5 = alloca ptr, align 8
  %6 = alloca i32, align 4
  %7 = alloca i8, align 1
  store ptr %0, ptr %3, align 8, !tbaa !3
  store ptr %1, ptr %4, align 8, !tbaa !8
  call void @llvm.lifetime.start.p0(i64 8, ptr %5) #4
  %8 = load ptr, ptr %4, align 8, !tbaa !8
  %9 = getelementptr inbounds nuw %struct.connectdata, ptr %8, i32 0, i32 43
  store ptr %9, ptr %5, align 8, !tbaa !91
  call void @llvm.lifetime.start.p0(i64 4, ptr %6) #4
  call void @llvm.lifetime.start.p0(i64 1, ptr %7) #4
  store i8 0, ptr %7, align 1, !tbaa !14
  %10 = load ptr, ptr %4, align 8, !tbaa !8
  %11 = call zeroext i1 @Curl_conn_is_ssl(ptr noundef %10, i32 noundef 0)
  br i1 %11, label %20, label %12

12:                                               ; preds = %2
  %13 = load ptr, ptr %3, align 8, !tbaa !3
  %14 = load ptr, ptr %4, align 8, !tbaa !8
  %15 = call i32 @Curl_ssl_cfilter_add(ptr noundef %13, ptr noundef %14, i32 noundef 0)
  store i32 %15, ptr %6, align 4, !tbaa !10
  %16 = load i32, ptr %6, align 4, !tbaa !10
  %17 = icmp ne i32 %16, 0
  br i1 %17, label %18, label %19

18:                                               ; preds = %12
  br label %56

19:                                               ; preds = %12
  br label %20

20:                                               ; preds = %19, %2
  %21 = load ptr, ptr %3, align 8, !tbaa !3
  %22 = call i32 @Curl_conn_connect(ptr noundef %21, i32 noundef 0, i1 noundef zeroext false, ptr noundef %7)
  store i32 %22, ptr %6, align 4, !tbaa !10
  %23 = load i32, ptr %6, align 4, !tbaa !10
  %24 = icmp ne i32 %23, 0
  br i1 %24, label %55, label %25

25:                                               ; preds = %20
  %26 = load i8, ptr %7, align 1, !tbaa !14, !range !103, !noundef !104
  %27 = trunc i8 %26 to i1
  %28 = zext i1 %27 to i32
  %29 = load ptr, ptr %5, align 8, !tbaa !91
  %30 = getelementptr inbounds nuw %struct.pop3_conn, ptr %29, i32 0, i32 8
  %31 = trunc i32 %28 to i8
  %32 = load i8, ptr %30, align 2
  %33 = and i8 %31, 1
  %34 = and i8 %32, -2
  %35 = or i8 %34, %33
  store i8 %35, ptr %30, align 2
  %36 = load ptr, ptr %5, align 8, !tbaa !91
  %37 = getelementptr inbounds nuw %struct.pop3_conn, ptr %36, i32 0, i32 1
  %38 = load i32, ptr %37, align 8, !tbaa !105
  %39 = icmp ne i32 %38, 4
  br i1 %39, label %40, label %42

40:                                               ; preds = %25
  %41 = load ptr, ptr %3, align 8, !tbaa !3
  call void @pop3_state(ptr noundef %41, i32 noundef 4)
  br label %42

42:                                               ; preds = %40, %25
  %43 = load ptr, ptr %5, align 8, !tbaa !91
  %44 = getelementptr inbounds nuw %struct.pop3_conn, ptr %43, i32 0, i32 8
  %45 = load i8, ptr %44, align 2
  %46 = and i8 %45, 1
  %47 = zext i8 %46 to i32
  %48 = icmp ne i32 %47, 0
  br i1 %48, label %49, label %54

49:                                               ; preds = %42
  %50 = load ptr, ptr %4, align 8, !tbaa !8
  call void @pop3_to_pop3s(ptr noundef %50)
  %51 = load ptr, ptr %3, align 8, !tbaa !3
  %52 = load ptr, ptr %4, align 8, !tbaa !8
  %53 = call i32 @pop3_perform_capa(ptr noundef %51, ptr noundef %52)
  store i32 %53, ptr %6, align 4, !tbaa !10
  br label %54

54:                                               ; preds = %49, %42
  br label %55

55:                                               ; preds = %54, %20
  br label %56

56:                                               ; preds = %55, %18
  %57 = load i32, ptr %6, align 4, !tbaa !10
  call void @llvm.lifetime.end.p0(i64 1, ptr %7) #4
  call void @llvm.lifetime.end.p0(i64 4, ptr %6) #4
  call void @llvm.lifetime.end.p0(i64 8, ptr %5) #4
  ret i32 %57
}